(lp0
(dp1
Vmodel_name
p2
VV_32_D3_sk_r10
p3
sVtrain_path
p4
(lp5
V/media/thomas/SSD/Data_64/Training/data.tfrecord
p6
asVval_path
p7
(lp8
V/media/thomas/SSD/Data_64/Validation/data.tfrecord
p9
asVtest_path
p10
(lp11
V/media/thomas/SSD/Data_64/Test/data.tfrecord
p12
asVsample_dir
p13
V/media/thomas/SSD/Samples/
p14
sVlog_path
p15
V/workspace/Logs/Training/V_32_D3_sk_r10
p16
sVcp_path
p17
V/workspace/Ckp/Training/V_32_D3_sk_r10
p18
sVlearning_rate
p19
F9.765625463842298e-07
sVlearning_rate_0
p20
F0.0005
sVepochs
p21
I300
sVep
p22
I204
sVepochs_cycle_1
p23
I50
sVepochs_cycle
p24
I20
sVepochs_ramp
p25
I5
sVwarmup
p26
I00
sVcooldown
p27
I01
sVlr_fact
p28
F0.75
sVloss_prms_r
p29
(lp30
F1.0
aF1.0
aF1.0
aF25.0
aF2.0
aF1.0
aF0.1
asVloss_prms_k
p31
(lp32
F2.0
aF4.0
aF2.0
aF4.0
aF1.0
aF0.001
aF1.0
asVbatch_size
p33
I256
sVscale_cbeds
p34
I01
sVdose
p35
(lp36
F0.0
aF9.0
aF3.0
asa(dp37
Varch
p38
VUNET
p39
sVbranching
p40
I0
sVkernel
p41
(lp42
I3
aI3
asVnormalization
p43
I5
sVactivation
p44
I3
sVfilters
p45
I32
sVdepth
p46
I3
sVstack_n
p47
I3
sVtype
p48
VV
p49
sVw_regul
p50
NsVa_regul
p51
NsVdropout
p52
F0.05
sVglobal_skip
p53
I1
sVglobal_cat
p54
I0
sa.